Certificate:
    Data:
        Version: 3 (0x2)
        Serial Number: 4096 (0x1000)
    Signature Algorithm: sha1WithRSAEncryption
        Issuer: C=SV, ST=Stockholm, L=Stockholm, O=IK2206, OU=1, CN=IK2206
        Validity
            Not Before: Dec  3 14:15:56 2016 GMT
            Not After : Dec  3 14:15:56 2017 GMT
        Subject: C=SV, ST=Stockholm, L=Stockholm, O=Server, OU=1, CN=IK2206
        Subject Public Key Info:
            Public Key Algorithm: rsaEncryption
                Public-Key: (1024 bit)
                Modulus:
                    00:b8:29:f0:88:40:8c:bd:24:d7:2a:af:6e:77:cc:
                    93:5e:cc:c2:c5:38:1f:a2:17:70:f5:be:e7:ea:2a:
                    52:1e:de:d8:98:33:59:f7:6c:b1:60:9c:b6:12:72:
                    09:3d:f8:b7:8d:23:97:18:2d:36:89:b6:f0:4f:6c:
                    ec:30:00:b1:05:41:85:6a:16:62:b9:9c:f0:fd:cd:
                    76:e0:32:dc:fc:2b:59:b7:9c:ad:be:5f:14:98:2f:
                    45:ba:85:32:42:be:b9:dd:4b:87:71:38:0d:33:b6:
                    86:41:95:67:44:80:35:18:87:61:44:95:2a:37:10:
                    03:38:ba:c0:22:a5:9a:64:41
                Exponent: 65537 (0x10001)
        X509v3 extensions:
            X509v3 Basic Constraints: 
                CA:FALSE
            Netscape Comment: 
                OpenSSL Generated Certificate
            X509v3 Subject Key Identifier: 
                F1:C9:C2:ED:89:20:FF:7A:3F:DD:97:A4:03:DF:7B:F8:A0:47:2E:88
            X509v3 Authority Key Identifier: 
                keyid:DE:34:26:31:D0:27:F1:4F:95:AA:89:A0:E1:3D:DD:CA:56:EA:79:AF

    Signature Algorithm: sha1WithRSAEncryption
         98:81:37:6b:f7:39:f2:f5:76:2e:64:c8:34:43:aa:72:fe:21:
         e0:82:51:fb:c6:a3:20:e8:39:de:e3:7c:5c:62:ab:84:56:ab:
         f9:23:0e:ce:3b:73:87:59:8e:37:b9:0e:14:ff:9e:15:9e:ad:
         42:f3:3b:7d:1d:71:22:b1:e8:07:db:b8:65:24:e8:ad:a3:c8:
         bf:15:f9:e9:a4:e4:80:59:42:d3:a0:ea:19:d7:d3:60:01:94:
         3a:9b:a9:f8:3b:0d:57:b1:56:4b:e8:01:3e:88:43:52:92:5b:
         e7:65:6d:ff:4c:83:88:63:19:9c:c2:c8:68:e3:c6:7c:22:af:
         1c:25
-----BEGIN CERTIFICATE-----
MIICuDCCAiGgAwIBAgICEAAwDQYJKoZIhvcNAQEFBQAwYzELMAkGA1UEBhMCU1Yx
EjAQBgNVBAgMCVN0b2NraG9sbTESMBAGA1UEBwwJU3RvY2tob2xtMQ8wDQYDVQQK
DAZJSzIyMDYxCjAIBgNVBAsMATExDzANBgNVBAMMBklLMjIwNjAeFw0xNjEyMDMx
NDE1NTZaFw0xNzEyMDMxNDE1NTZaMGMxCzAJBgNVBAYTAlNWMRIwEAYDVQQIDAlT
dG9ja2hvbG0xEjAQBgNVBAcMCVN0b2NraG9sbTEPMA0GA1UECgwGU2VydmVyMQow
CAYDVQQLDAExMQ8wDQYDVQQDDAZJSzIyMDYwgZ8wDQYJKoZIhvcNAQEBBQADgY0A
MIGJAoGBALgp8IhAjL0k1yqvbnfMk17MwsU4H6IXcPW+5+oqUh7e2JgzWfdssWCc
thJyCT34t40jlxgtNom28E9s7DAAsQVBhWoWYrmc8P3NduAy3PwrWbecrb5fFJgv
RbqFMkK+ud1Lh3E4DTO2hkGVZ0SANRiHYUSVKjcQAzi6wCKlmmRBAgMBAAGjezB5
MAkGA1UdEwQCMAAwLAYJYIZIAYb4QgENBB8WHU9wZW5TU0wgR2VuZXJhdGVkIENl
cnRpZmljYXRlMB0GA1UdDgQWBBTxycLtiSD/ej/dl6QD33v4oEcuiDAfBgNVHSME
GDAWgBTeNCYx0CfxT5WqiaDhPd3KVup5rzANBgkqhkiG9w0BAQUFAAOBgQCYgTdr
9zny9XYuZMg0Q6py/iHgglH7xqMg6Dne43xcYquEVqv5Iw7OO3OHWY43uQ4U/54V
nq1C8zt9HXEisegH27hlJOito8i/FfnppOSAWULToOoZ19NgAZQ6m6n4Ow1XsVZL
6AE+iENSklvnZW3/TIOIYxmcwsho48Z8Iq8cJQ==
-----END CERTIFICATE-----
