Certificate:
    Data:
        Version: 3 (0x2)
        Serial Number: 4097 (0x1001)
    Signature Algorithm: sha1WithRSAEncryption
        Issuer: C=SV, ST=Stockholm, L=Stockholm, O=IK2206, OU=1, CN=IK2206
        Validity
            Not Before: Dec  3 14:16:28 2016 GMT
            Not After : Dec  3 14:16:28 2017 GMT
        Subject: C=SV, ST=Stockholm, L=Stockholm, O=Client, OU=1, CN=IK2206
        Subject Public Key Info:
            Public Key Algorithm: rsaEncryption
                Public-Key: (1024 bit)
                Modulus:
                    00:b6:ab:d8:5a:0a:2a:5a:f1:59:15:3a:5c:f6:28:
                    40:61:5f:85:37:89:96:52:ec:cb:04:44:44:a8:41:
                    89:2c:9d:26:5b:c2:34:a9:88:c8:fa:c7:f3:5f:64:
                    47:85:6e:4d:84:9e:c1:32:8b:7a:52:0a:85:91:15:
                    fc:8c:20:b8:75:92:c6:1b:1f:b3:be:22:72:eb:96:
                    1b:ec:17:a7:bb:cd:c5:83:e4:e3:3b:30:1f:a1:8c:
                    c4:20:73:02:2a:44:ee:09:81:fe:52:07:50:90:35:
                    2f:be:46:51:fa:fe:db:b0:54:76:ce:3b:ea:18:69:
                    12:fa:eb:0c:a7:9b:f4:b2:27
                Exponent: 65537 (0x10001)
        X509v3 extensions:
            X509v3 Basic Constraints: 
                CA:FALSE
            Netscape Comment: 
                OpenSSL Generated Certificate
            X509v3 Subject Key Identifier: 
                84:A9:18:96:05:5C:18:5E:FF:E4:FE:72:5D:51:9A:E0:61:4C:DA:B6
            X509v3 Authority Key Identifier: 
                keyid:DE:34:26:31:D0:27:F1:4F:95:AA:89:A0:E1:3D:DD:CA:56:EA:79:AF

    Signature Algorithm: sha1WithRSAEncryption
         5a:41:81:ee:d2:45:54:75:29:44:43:07:47:df:0a:6e:8c:99:
         5b:bc:ef:16:90:31:96:73:d0:c4:88:05:48:26:c6:c8:09:bc:
         80:7b:90:4f:84:2a:5a:2b:4d:cd:c6:0c:fd:ba:4e:41:6c:41:
         a6:4f:03:67:a2:b4:f1:8d:e1:db:ea:f7:61:39:37:49:d2:3b:
         04:52:44:c0:e8:6e:a4:6b:ca:dc:45:e0:7a:eb:98:c0:85:ab:
         68:6b:3a:43:5b:44:77:08:36:58:16:5e:32:47:79:07:2f:4a:
         71:bc:9f:16:e3:21:25:48:d5:31:7a:a0:67:36:73:c5:bd:77:
         b7:84
-----BEGIN CERTIFICATE-----
MIICuDCCAiGgAwIBAgICEAEwDQYJKoZIhvcNAQEFBQAwYzELMAkGA1UEBhMCU1Yx
EjAQBgNVBAgMCVN0b2NraG9sbTESMBAGA1UEBwwJU3RvY2tob2xtMQ8wDQYDVQQK
DAZJSzIyMDYxCjAIBgNVBAsMATExDzANBgNVBAMMBklLMjIwNjAeFw0xNjEyMDMx
NDE2MjhaFw0xNzEyMDMxNDE2MjhaMGMxCzAJBgNVBAYTAlNWMRIwEAYDVQQIDAlT
dG9ja2hvbG0xEjAQBgNVBAcMCVN0b2NraG9sbTEPMA0GA1UECgwGQ2xpZW50MQow
CAYDVQQLDAExMQ8wDQYDVQQDDAZJSzIyMDYwgZ8wDQYJKoZIhvcNAQEBBQADgY0A
MIGJAoGBALar2FoKKlrxWRU6XPYoQGFfhTeJllLsywRERKhBiSydJlvCNKmIyPrH
819kR4VuTYSewTKLelIKhZEV/IwguHWSxhsfs74icuuWG+wXp7vNxYPk4zswH6GM
xCBzAipE7gmB/lIHUJA1L75GUfr+27BUds476hhpEvrrDKeb9LInAgMBAAGjezB5
MAkGA1UdEwQCMAAwLAYJYIZIAYb4QgENBB8WHU9wZW5TU0wgR2VuZXJhdGVkIENl
cnRpZmljYXRlMB0GA1UdDgQWBBSEqRiWBVwYXv/k/nJdUZrgYUzatjAfBgNVHSME
GDAWgBTeNCYx0CfxT5WqiaDhPd3KVup5rzANBgkqhkiG9w0BAQUFAAOBgQBaQYHu
0kVUdSlEQwdH3wpujJlbvO8WkDGWc9DEiAVIJsbICbyAe5BPhCpaK03Nxgz9uk5B
bEGmTwNnorTxjeHb6vdhOTdJ0jsEUkTA6G6ka8rcReB665jAhatoazpDW0R3CDZY
Fl4yR3kHL0pxvJ8W4yElSNUxeqBnNnPFvXe3hA==
-----END CERTIFICATE-----
