Certificate:
    Data:
        Version: 3 (0x2)
        Serial Number: 4098 (0x1002)
    Signature Algorithm: sha1WithRSAEncryption
        Issuer: C=AU, ST=Some-State, O=Internet Widgits Pty Ltd, CN=ca
        Validity
            Not Before: Dec  5 16:23:16 2016 GMT
            Not After : Dec  5 16:23:16 2017 GMT
        Subject: C=AU, ST=Some-State, O=Internet Widgits Pty Ltd, CN=server
        Subject Public Key Info:
            Public Key Algorithm: rsaEncryption
                Public-Key: (1024 bit)
                Modulus:
                    00:e0:7e:cc:01:cb:0d:37:e2:24:b4:6c:69:28:8f:
                    28:28:3e:5a:e0:9b:a1:47:16:58:7b:54:4c:d5:2e:
                    0e:61:7a:41:f5:de:21:69:e5:eb:18:8c:be:c3:1b:
                    94:58:02:c1:13:52:5a:d4:0a:78:6b:1f:53:29:81:
                    3c:a3:98:7f:4e:51:f0:7a:e6:7f:a2:27:59:de:65:
                    ce:79:c9:56:0c:fb:f6:d7:40:87:56:29:c5:cd:a3:
                    2e:4e:37:7b:35:1e:e1:93:42:0d:81:20:40:26:08:
                    85:a8:e5:f9:85:f4:09:e8:0c:11:eb:d8:3c:fd:f6:
                    36:8e:2e:62:bd:25:a5:c4:a7
                Exponent: 65537 (0x10001)
        X509v3 extensions:
            X509v3 Basic Constraints: 
                CA:FALSE
            Netscape Comment: 
                OpenSSL Generated Certificate
            X509v3 Subject Key Identifier: 
                27:65:8A:03:75:92:04:00:FB:71:F4:94:87:3D:0B:46:65:19:22:A0
            X509v3 Authority Key Identifier: 
                keyid:F3:CE:F0:52:13:F8:E1:97:87:2F:B4:0D:04:BD:0C:08:5F:52:63:4A

    Signature Algorithm: sha1WithRSAEncryption
         85:22:a6:54:34:29:09:67:78:df:13:0c:70:86:ac:18:08:8a:
         1a:20:bf:4d:27:a4:c6:27:3c:ef:55:23:da:cd:23:1b:cf:7a:
         b0:79:b3:32:46:8a:71:d3:c0:1b:70:ed:e4:25:3f:4d:43:c8:
         18:24:dd:53:55:be:4b:ae:09:20:f3:1f:d2:d5:73:4b:1c:76:
         f4:ee:c5:88:da:e8:8a:ba:63:88:c6:6c:0f:60:f2:7e:53:80:
         a1:78:ab:de:ca:9b:48:fe:bc:f5:4a:e6:25:f5:10:69:55:1d:
         9d:98:e5:d7:f8:ee:8c:ba:d9:65:fe:b6:38:28:21:10:f3:f0:
         6d:09
-----BEGIN CERTIFICATE-----
MIICmjCCAgOgAwIBAgICEAIwDQYJKoZIhvcNAQEFBQAwUjELMAkGA1UEBhMCQVUx
EzARBgNVBAgMClNvbWUtU3RhdGUxITAfBgNVBAoMGEludGVybmV0IFdpZGdpdHMg
UHR5IEx0ZDELMAkGA1UEAwwCY2EwHhcNMTYxMjA1MTYyMzE2WhcNMTcxMjA1MTYy
MzE2WjBWMQswCQYDVQQGEwJBVTETMBEGA1UECAwKU29tZS1TdGF0ZTEhMB8GA1UE
CgwYSW50ZXJuZXQgV2lkZ2l0cyBQdHkgTHRkMQ8wDQYDVQQDDAZzZXJ2ZXIwgZ8w
DQYJKoZIhvcNAQEBBQADgY0AMIGJAoGBAOB+zAHLDTfiJLRsaSiPKCg+WuCboUcW
WHtUTNUuDmF6QfXeIWnl6xiMvsMblFgCwRNSWtQKeGsfUymBPKOYf05R8Hrmf6In
Wd5lznnJVgz79tdAh1Ypxc2jLk43ezUe4ZNCDYEgQCYIhajl+YX0CegMEevYPP32
No4uYr0lpcSnAgMBAAGjezB5MAkGA1UdEwQCMAAwLAYJYIZIAYb4QgENBB8WHU9w
ZW5TU0wgR2VuZXJhdGVkIENlcnRpZmljYXRlMB0GA1UdDgQWBBQnZYoDdZIEAPtx
9JSHPQtGZRkioDAfBgNVHSMEGDAWgBTzzvBSE/jhl4cvtA0EvQwIX1JjSjANBgkq
hkiG9w0BAQUFAAOBgQCFIqZUNCkJZ3jfEwxwhqwYCIoaIL9NJ6TGJzzvVSPazSMb
z3qwebMyRopx08AbcO3kJT9NQ8gYJN1TVb5Lrgkg8x/S1XNLHHb07sWI2uiKumOI
xmwPYPJ+U4CheKveyptI/rz1SuYl9RBpVR2dmOXX+O6Mutll/rY4KCEQ8/BtCQ==
-----END CERTIFICATE-----
