Certificate:
    Data:
        Version: 3 (0x2)
        Serial Number: 4099 (0x1003)
    Signature Algorithm: sha1WithRSAEncryption
        Issuer: C=AU, ST=Some-State, O=Internet Widgits Pty Ltd, CN=ca
        Validity
            Not Before: Dec  5 16:23:35 2016 GMT
            Not After : Dec  5 16:23:35 2017 GMT
        Subject: C=AU, ST=Some-State, O=Internet Widgits Pty Ltd, CN=client
        Subject Public Key Info:
            Public Key Algorithm: rsaEncryption
                Public-Key: (1024 bit)
                Modulus:
                    00:b8:65:04:eb:ee:3e:2b:69:cc:aa:be:1e:cf:3d:
                    34:72:4b:6d:62:f6:86:9e:06:6f:ff:7e:d5:26:b9:
                    c7:e1:9f:f1:cc:31:59:c7:10:ff:78:90:0b:6b:03:
                    d0:fd:dc:cc:9b:1d:4a:e1:05:cd:60:85:b8:d6:24:
                    c0:a8:79:6a:c3:62:d9:38:bf:58:3f:c5:f7:ea:01:
                    f2:91:09:51:98:ce:67:2b:d6:31:9c:88:8b:42:29:
                    72:34:9d:88:43:9e:de:b4:10:74:ed:d7:be:8d:67:
                    24:ee:f2:6f:da:9c:f5:8d:8d:a7:bc:81:db:8f:9f:
                    f5:4b:9c:73:f0:2a:a0:2e:4f
                Exponent: 65537 (0x10001)
        X509v3 extensions:
            X509v3 Basic Constraints: 
                CA:FALSE
            Netscape Comment: 
                OpenSSL Generated Certificate
            X509v3 Subject Key Identifier: 
                16:1B:49:DC:4B:2C:E0:5C:73:4D:A8:76:EC:F9:15:EE:7D:08:42:EF
            X509v3 Authority Key Identifier: 
                keyid:F3:CE:F0:52:13:F8:E1:97:87:2F:B4:0D:04:BD:0C:08:5F:52:63:4A

    Signature Algorithm: sha1WithRSAEncryption
         9d:be:60:d5:70:e2:42:cd:a1:3e:94:82:f0:53:e6:ed:8c:34:
         97:38:9a:b4:f1:4f:2f:af:89:4e:42:fc:d1:db:3b:1e:86:59:
         cb:70:b4:97:b6:1f:c8:87:54:34:94:49:7f:21:91:ba:7e:9d:
         37:53:14:ed:39:57:2f:e3:ef:88:4f:c7:00:88:cb:44:57:3e:
         55:7e:ad:d4:ac:a0:eb:7c:7c:47:64:77:cb:68:a7:ea:70:c4:
         4e:8c:5a:85:72:ec:4e:97:8c:72:e2:c1:c3:b3:50:51:22:13:
         98:5a:81:70:d2:84:f1:2d:e3:87:5f:fb:24:7e:8a:4e:6c:0f:
         86:38
-----BEGIN CERTIFICATE-----
MIICmjCCAgOgAwIBAgICEAMwDQYJKoZIhvcNAQEFBQAwUjELMAkGA1UEBhMCQVUx
EzARBgNVBAgMClNvbWUtU3RhdGUxITAfBgNVBAoMGEludGVybmV0IFdpZGdpdHMg
UHR5IEx0ZDELMAkGA1UEAwwCY2EwHhcNMTYxMjA1MTYyMzM1WhcNMTcxMjA1MTYy
MzM1WjBWMQswCQYDVQQGEwJBVTETMBEGA1UECAwKU29tZS1TdGF0ZTEhMB8GA1UE
CgwYSW50ZXJuZXQgV2lkZ2l0cyBQdHkgTHRkMQ8wDQYDVQQDDAZjbGllbnQwgZ8w
DQYJKoZIhvcNAQEBBQADgY0AMIGJAoGBALhlBOvuPitpzKq+Hs89NHJLbWL2hp4G
b/9+1Sa5x+Gf8cwxWccQ/3iQC2sD0P3czJsdSuEFzWCFuNYkwKh5asNi2Ti/WD/F
9+oB8pEJUZjOZyvWMZyIi0IpcjSdiEOe3rQQdO3Xvo1nJO7yb9qc9Y2Np7yB24+f
9Uucc/AqoC5PAgMBAAGjezB5MAkGA1UdEwQCMAAwLAYJYIZIAYb4QgENBB8WHU9w
ZW5TU0wgR2VuZXJhdGVkIENlcnRpZmljYXRlMB0GA1UdDgQWBBQWG0ncSyzgXHNN
qHbs+RXufQhC7zAfBgNVHSMEGDAWgBTzzvBSE/jhl4cvtA0EvQwIX1JjSjANBgkq
hkiG9w0BAQUFAAOBgQCdvmDVcOJCzaE+lILwU+btjDSXOJq08U8vr4lOQvzR2zse
hlnLcLSXth/Ih1Q0lEl/IZG6fp03UxTtOVcv4++IT8cAiMtEVz5Vfq3UrKDrfHxH
ZHfLaKfqcMROjFqFcuxOl4xy4sHDs1BRIhOYWoFw0oTxLeOHX/skfopObA+GOA==
-----END CERTIFICATE-----
